target datalayout = "e-m:e-p270:32:32-p271:32:32-p272:64:64-i64:64-i128:128-f80:128-n8:16:32:64-S128"
target triple = "x86_64-pc-linux-gnu"

%class.ErrorHandler = type <{ i32, i32, i8, i8, i8, i8, i8, i8, [2 x i8] }>

@ErrHandler = external global %class.ErrorHandler, align 4
@.str = private unnamed_addr constant [1 x i32] zeroinitializer, align 4
@_ZZ13ProcessSignaliE10BreakCount = internal global i32 0, align 4

; Function Attrs: mustprogress nounwind uwtable
define linkonce_odr void @_Z7mprintfPKwz(ptr noundef %0, ...) #1 comdat {
  %2 = alloca ptr, align 8
  store ptr %0, ptr %2, align 8
  ret void
}

; Function Attrs: mustprogress nounwind uwtable
define linkonce_odr void @_ZN12ErrorHandler18SetDisableShutdownEv(ptr noundef nonnull align 4 dereferenceable(14) %0) #1 comdat align 2 {
  %2 = alloca ptr, align 8
  store ptr %0, ptr %2, align 8
  %3 = load ptr, ptr %2, align 8
  %4 = getelementptr inbounds %class.ErrorHandler, ptr %3, i32 0, i32 4
  store i8 1, ptr %4, align 2
  ret void
}

; Function Attrs: mustprogress uwtable
define void @_Z13ProcessSignali(i32 noundef %0) #0 {
  %2 = alloca i32, align 4
  store i32 %0, ptr %2, align 4
  store i8 1, ptr getelementptr inbounds (%class.ErrorHandler, ptr @ErrHandler, i32 0, i32 6), align 4
  call void @_ZN12ErrorHandler18SetDisableShutdownEv(ptr noundef nonnull align 4 dereferenceable(14) @ErrHandler)
  call void (ptr, ...) @_Z7mprintfPKwz(ptr noundef @.str)
  %3 = load i32, ptr @_ZZ13ProcessSignaliE10BreakCount, align 4
  %4 = add i32 %3, 1
  store i32 %4, ptr @_ZZ13ProcessSignaliE10BreakCount, align 4
  %5 = icmp ugt i32 %4, 1
  br i1 %5, label %6, label %7

6:                                                ; preds = %1
  call void @exit(i32 noundef 255) #10
  unreachable

7:                                                ; preds = %1
  ret void
}