; Function Attrs: mustprogress nounwind uwtable
define void @_Z13ProcessSignali(i32 %0) #8 {
  store i8 1, ptr getelementptr inbounds (%class.ErrorHandler, ptr @ErrHandler, i64 0, i32 6), align 4
  store i8 1, ptr getelementptr inbounds (%class.ErrorHandler, ptr @ErrHandler, i64 0, i32 4), align 2
  %2 = load i32, ptr @_ZZ13ProcessSignaliE10BreakCount, align 4
  %3 = add i32 %2, 1
  store i32 %3, ptr @_ZZ13ProcessSignaliE10BreakCount, align 4
  %4 = icmp ugt i32 %3, 1
  br i1 %4, label %5, label %6

5:                                                ; preds = %1
  tail call void @exit(i32 noundef 255) #17
  unreachable

6:                                                ; preds = %1
  ret void
}